; Function Attrs: mustprogress nofree norecurse nosync nounwind memory(read, argmem: readwrite, inaccessiblemem: none) uwtable
define hidden noundef zeroext i16 @_ZN3ue226buildAlphabetFromEquivSetsERKSt6vectorINS_9CharReachESaIS1_EERSt5arrayItLm257EES8_(ptr noundef nonnull readonly align 8 captures(none) dereferenceable(24) %0, ptr noundef nonnull writeonly align 2 captures(none) dereferenceable(514) %1, ptr noundef nonnull writeonly align 2 captures(none) dereferenceable(514) %2) local_unnamed_addr #0 {
  %4 = getelementptr inbounds nuw i8, ptr %0, i64 8
  %5 = load ptr, ptr %4, align 8
  %6 = load ptr, ptr %0, align 8
  %.not47 = icmp eq ptr %5, %6
  br i1 %.not47, label %.preheader, label %.lr.ph44

.preheader:                                       ; preds = %._crit_edge, %3
  %.026.lcssa = phi i16 [ 0, %3 ], [ %34, %._crit_edge ]
  %7 = zext i16 %.026.lcssa to i64
  %8 = getelementptr inbounds nuw i8, ptr %1, i64 512
  store i16 %.026.lcssa, ptr %8, align 2
  %9 = getelementptr inbounds nuw [257 x i16], ptr %2, i64 0, i64 %7
  store i16 256, ptr %9, align 2
  %10 = add i16 %.026.lcssa, 1
  ret i16 %10

.lr.ph44:                                         ; preds = %3, %._crit_edge
  %11 = phi ptr [ %37, %._crit_edge ], [ %6, %3 ]
  %12 = phi i64 [ %35, %._crit_edge ], [ 0, %3 ]
  %.02642 = phi i16 [ %34, %._crit_edge ], [ 0, %3 ]
  %13 = getelementptr inbounds nuw %"class.ue2::CharReach", ptr %11, i64 %12
  br label %14

14:                                               ; preds = %22, %.lr.ph44
  %.0710.i.i = phi i64 [ 0, %.lr.ph44 ], [ %23, %22 ]
  %15 = getelementptr inbounds nuw [4 x i64], ptr %13, i64 0, i64 %.0710.i.i
  %16 = load i64, ptr %15, align 8
  %.not.i.i = icmp eq i64 %16, 0
  br i1 %.not.i.i, label %22, label %17

17:                                               ; preds = %14
  %18 = shl nuw nsw i64 %.0710.i.i, 6
  %19 = tail call noundef range(i64 0, 65) i64 @llvm.cttz.i64(i64 %16, i1 true)
  %20 = or disjoint i64 %19, %18
  %21 = trunc i64 %20 to i16
  br label %_ZNK3ue29CharReach10find_firstEv.exit

22:                                               ; preds = %14
  %23 = add nuw nsw i64 %.0710.i.i, 1
  %exitcond.i.i = icmp eq i64 %23, 4
  br i1 %exitcond.i.i, label %_ZNK3ue29CharReach10find_firstEv.exit, label %14, !llvm.loop !5

_ZNK3ue29CharReach10find_firstEv.exit:            ; preds = %22, %17
  %spec.select.i.i = phi i16 [ %21, %17 ], [ 256, %22 ]
  br label %24

24:                                               ; preds = %27, %_ZNK3ue29CharReach10find_firstEv.exit
  %.0710.i.i28 = phi i64 [ 0, %_ZNK3ue29CharReach10find_firstEv.exit ], [ %28, %27 ]
  %25 = getelementptr inbounds nuw [4 x i64], ptr %13, i64 0, i64 %.0710.i.i28
  %26 = load i64, ptr %25, align 8
  %.not.i.i29 = icmp eq i64 %26, 0
  br i1 %.not.i.i29, label %27, label %_ZNK3ue29CharReach10find_firstEv.exit32

27:                                               ; preds = %24
  %28 = add nuw nsw i64 %.0710.i.i28, 1
  %exitcond.i.i31 = icmp eq i64 %28, 4
  br i1 %exitcond.i.i31, label %._crit_edge, label %24, !llvm.loop !5

_ZNK3ue29CharReach10find_firstEv.exit32:          ; preds = %24
  %29 = shl nuw nsw i64 %.0710.i.i28, 6
  %30 = tail call noundef range(i64 0, 65) i64 @llvm.cttz.i64(i64 %26, i1 true)
  %31 = or disjoint i64 %30, %29
  %.not40 = icmp eq i64 %31, 256
  br i1 %.not40, label %._crit_edge, label %.lr.ph.preheader

.lr.ph.preheader:                                 ; preds = %_ZNK3ue29CharReach10find_firstEv.exit32
  %32 = getelementptr inbounds nuw [257 x i16], ptr %1, i64 0, i64 %31
  store i16 %.02642, ptr %32, align 2
  %.not.i.i3385 = icmp samesign ult i64 %.0710.i.i28, 4
  br i1 %.not.i.i3385, label %.lr.ph87, label %._crit_edge

._crit_edge:                                      ; preds = %27, %_ZNK3ue29CharReach9find_nextEm.exit, %52, %.lr.ph.preheader, %_ZNK3ue29CharReach10find_firstEv.exit32
  %33 = getelementptr inbounds nuw [257 x i16], ptr %2, i64 0, i64 %12
  store i16 %spec.select.i.i, ptr %33, align 2
  %34 = add i16 %.02642, 1
  %35 = zext i16 %34 to i64
  %36 = load ptr, ptr %4, align 8
  %37 = load ptr, ptr %0, align 8
  %38 = ptrtoint ptr %36 to i64
  %39 = ptrtoint ptr %37 to i64
  %40 = sub i64 %38, %39
  %41 = ashr exact i64 %40, 5
  %42 = icmp ugt i64 %41, %35
  br i1 %42, label %.lr.ph44, label %.preheader, !llvm.loop !7

.lr.ph87:                                         ; preds = %.lr.ph.preheader, %_ZNK3ue29CharReach9find_nextEm.exit
  %.0254186 = phi i64 [ %60, %_ZNK3ue29CharReach9find_nextEm.exit ], [ %31, %.lr.ph.preheader ]
  %43 = lshr i64 %.0254186, 6
  %44 = and i64 %.0254186, 63
  %.not20.i.i = icmp eq i64 %44, 63
  br i1 %.not20.i.i, label %.preheader88, label %45

.preheader88:                                     ; preds = %45, %.lr.ph87
  br label %52

45:                                               ; preds = %.lr.ph87
  %46 = getelementptr inbounds nuw [4 x i64], ptr %13, i64 0, i64 %43
  %47 = load i64, ptr %46, align 8
  %48 = shl nsw i64 -2, %44
  %49 = and i64 %47, %48
  %.not21.i.i = icmp eq i64 %49, 0
  br i1 %.not21.i.i, label %.preheader88, label %50

50:                                               ; preds = %45
  %51 = and i64 %.0254186, 192
  br label %_ZNK3ue29CharReach9find_nextEm.exit

52:                                               ; preds = %.preheader88, %54
  %.0.in.i.i = phi i64 [ %.0.i.i, %54 ], [ %43, %.preheader88 ]
  %53 = icmp samesign ult i64 %.0.in.i.i, 3
  br i1 %53, label %54, label %._crit_edge

54:                                               ; preds = %52
  %.0.i.i = add nuw nsw i64 %.0.in.i.i, 1
  %55 = getelementptr inbounds nuw [4 x i64], ptr %13, i64 0, i64 %.0.i.i
  %56 = load i64, ptr %55, align 8
  %.not22.i.i = icmp eq i64 %56, 0
  br i1 %.not22.i.i, label %52, label %57, !llvm.loop !8

57:                                               ; preds = %54
  %58 = shl nuw nsw i64 %.0.i.i, 6
  br label %_ZNK3ue29CharReach9find_nextEm.exit

_ZNK3ue29CharReach9find_nextEm.exit:              ; preds = %50, %57
  %.sink75 = phi i64 [ %49, %50 ], [ %56, %57 ]
  %.sink74 = phi i64 [ %51, %50 ], [ %58, %57 ]
  %59 = tail call range(i64 0, 65) i64 @llvm.cttz.i64(i64 %.sink75, i1 true)
  %60 = or disjoint i64 %59, %.sink74
  %61 = getelementptr inbounds nuw [257 x i16], ptr %1, i64 0, i64 %60
  store i16 %.02642, ptr %61, align 2
  %.not.i.i33 = icmp samesign ult i64 %.sink74, 256
  br i1 %.not.i.i33, label %.lr.ph87, label %._crit_edge, !llvm.loop !9
}